target datalayout = "e-m:e-p270:32:32-p271:32:32-p272:64:64-i64:64-i128:128-f80:128-n8:16:32:64-S128"
target triple = "x86_64-pc-linux-gnu"

%"class.std::__cxx11::basic_string" = type { %"struct.std::__cxx11::basic_string<char>::_Alloc_hider", i64, %union.anon }
%"struct.std::__cxx11::basic_string<char>::_Alloc_hider" = type { ptr }
%union.anon = type { i64, [8 x i8] }
%"class.google::protobuf::MessageLite" = type { ptr, %"class.google::protobuf::internal::InternalMetadata" }
%"class.google::protobuf::internal::InternalMetadata" = type { ptr }
%"class.google::protobuf::internal::ExtensionSet" = type { ptr, i16, i16, %"union.google::protobuf::internal::ExtensionSet::AllocatedData" }
%"union.google::protobuf::internal::ExtensionSet::AllocatedData" = type { ptr }
%"class.google::protobuf::internal::CachedSize" = type { %"struct.std::atomic" }
%"struct.std::atomic" = type { %"struct.std::__atomic_base" }
%"struct.std::__atomic_base" = type { i32 }
%"class.google::protobuf::internal::RepeatedPtrFieldBase" = type { ptr, i32, i32, ptr }
%"class.google::protobuf::internal::LogMessage" = type { i32, ptr, i32, %"class.std::__cxx11::basic_string" }
%"class.google::protobuf::internal::LogFinisher" = type { i8 }
%"struct.google::protobuf::internal::InternalMetadata::Container" = type { %"struct.google::protobuf::internal::InternalMetadata::ContainerBase", %"class.std::__cxx11::basic_string" }
%"struct.google::protobuf::internal::InternalMetadata::ContainerBase" = type { ptr }
%"class.sentencepiece::SelfTestData" = type <{ %"class.google::protobuf::MessageLite", %"class.google::protobuf::internal::ExtensionSet", %"class.google::protobuf::RepeatedPtrField.12", %"class.google::protobuf::internal::CachedSize", [4 x i8] }>
%"class.google::protobuf::RepeatedPtrField.12" = type { %"class.google::protobuf::internal::RepeatedPtrFieldBase" }

@.str.31 = private unnamed_addr constant [66 x i8] c"src/../third_party/protobuf-lite/google/protobuf/repeated_field.h\00", align 1
@.str.43 = private unnamed_addr constant [30 x i8] c"CHECK failed: this != other: \00", align 1
@.str.44 = private unnamed_addr constant [48 x i8] c"CHECK failed: GetArena() == other->GetArena(): \00", align 1

; Function Attrs: inlinehint mustprogress nounwind uwtable
define linkonce_odr void @_ZN6google8protobuf8internal7memswapILi0EEENSt9enable_ifIXeqT_Li0EEvE4typeEPcS6_(ptr noundef %0, ptr noundef %1) #9 comdat {
  %3 = alloca ptr, align 8
  %4 = alloca ptr, align 8
  store ptr %0, ptr %3, align 8, !tbaa !16
  store ptr %1, ptr %4, align 8, !tbaa !16
  ret void
}

; Function Attrs: inlinehint mustprogress nounwind uwtable
define linkonce_odr void @_ZN6google8protobuf8internal9SwapBlockIoEEvPcS3_(ptr noundef %0, ptr noundef %1) #9 comdat {
  %3 = alloca ptr, align 8
  %4 = alloca ptr, align 8
  %5 = alloca i128, align 16
  store ptr %0, ptr %3, align 8, !tbaa !16
  store ptr %1, ptr %4, align 8, !tbaa !16
  call void @llvm.lifetime.start.p0(i64 16, ptr %5) #3
  %6 = load ptr, ptr %3, align 8, !tbaa !16
  call void @llvm.memcpy.p0.p0.i64(ptr align 16 %5, ptr align 1 %6, i64 16, i1 false)
  %7 = load ptr, ptr %3, align 8, !tbaa !16
  %8 = load ptr, ptr %4, align 8, !tbaa !16
  call void @llvm.memcpy.p0.p0.i64(ptr align 1 %7, ptr align 1 %8, i64 16, i1 false)
  %9 = load ptr, ptr %4, align 8, !tbaa !16
  call void @llvm.memcpy.p0.p0.i64(ptr align 1 %9, ptr align 16 %5, i64 16, i1 false)
  call void @llvm.lifetime.end.p0(i64 16, ptr %5) #3
  ret void
}

; Function Attrs: mustprogress uwtable
define linkonce_odr void @_ZN6google8protobuf8internal7memswapILi16EEENSt9enable_ifIXaageT_Lm16EltT_lsLj1ELi31EEvE4typeEPcS6_(ptr noundef %0, ptr noundef %1) #4 comdat {
  %3 = alloca ptr, align 8
  %4 = alloca ptr, align 8
  store ptr %0, ptr %3, align 8, !tbaa !16
  store ptr %1, ptr %4, align 8, !tbaa !16
  %5 = load ptr, ptr %3, align 8, !tbaa !16
  %6 = load ptr, ptr %4, align 8, !tbaa !16
  call void @_ZN6google8protobuf8internal9SwapBlockIoEEvPcS3_(ptr noundef %5, ptr noundef %6)
  %7 = load ptr, ptr %3, align 8, !tbaa !16
  %8 = getelementptr inbounds nuw i8, ptr %7, i64 16
  %9 = load ptr, ptr %4, align 8, !tbaa !16
  %10 = getelementptr inbounds nuw i8, ptr %9, i64 16
  call void @_ZN6google8protobuf8internal7memswapILi0EEENSt9enable_ifIXeqT_Li0EEvE4typeEPcS6_(ptr noundef %8, ptr noundef %10)
  ret void
}

; Function Attrs: inlinehint mustprogress nounwind uwtable
define linkonce_odr noundef ptr @_ZNK6google8protobuf8internal20RepeatedPtrFieldBase8GetArenaEv(ptr noundef nonnull align 8 dereferenceable(24) %0) #9 comdat align 2 {
  %2 = alloca ptr, align 8
  store ptr %0, ptr %2, align 8, !tbaa !260
  %3 = load ptr, ptr %2, align 8
  %4 = getelementptr inbounds nuw %"class.google::protobuf::internal::RepeatedPtrFieldBase", ptr %3, i32 0, i32 0
  %5 = load ptr, ptr %4, align 8, !tbaa !267
  ret ptr %5
}

; Function Attrs: mustprogress nounwind uwtable
define linkonce_odr noundef ptr @_ZNK6google8protobuf8internal16InternalMetadata8PtrValueINS2_9ContainerINSt7__cxx1112basic_stringIcSt11char_traitsIcESaIcEEEEEEEPT_v(ptr noundef nonnull align 8 dereferenceable(8) %0) #5 comdat align 2 {
  %2 = alloca ptr, align 8
  store ptr %0, ptr %2, align 8, !tbaa !87
  %3 = load ptr, ptr %2, align 8
  %4 = getelementptr inbounds nuw %"class.google::protobuf::internal::InternalMetadata", ptr %3, i32 0, i32 0
  %5 = load ptr, ptr %4, align 8, !tbaa !238
  %6 = ptrtoint ptr %5 to i64
  %7 = and i64 %6, -2
  %8 = inttoptr i64 %7 to ptr
  ret ptr %8
}

; Function Attrs: alwaysinline mustprogress nounwind uwtable
define linkonce_odr noundef i32 @_ZNK6google8protobuf8internal16InternalMetadata6PtrTagEv(ptr noundef nonnull align 8 dereferenceable(8) %0) #8 comdat align 2 {
  %2 = alloca ptr, align 8
  store ptr %0, ptr %2, align 8, !tbaa !87
  %3 = load ptr, ptr %2, align 8
  %4 = getelementptr inbounds nuw %"class.google::protobuf::internal::InternalMetadata", ptr %3, i32 0, i32 0
  %5 = load ptr, ptr %4, align 8, !tbaa !238
  %6 = ptrtoint ptr %5 to i64
  %7 = and i64 %6, 1
  %8 = trunc i64 %7 to i32
  ret i32 %8
}

; Function Attrs: inlinehint mustprogress uwtable
define linkonce_odr void @_ZN6google8protobuf8internal20RepeatedPtrFieldBase12InternalSwapEPS2_(ptr noundef nonnull align 8 dereferenceable(24) %0, ptr noundef %1) #7 comdat align 2 personality ptr @__gxx_personality_v0 {
  %3 = alloca ptr, align 8
  %4 = alloca ptr, align 8
  %5 = alloca %"class.google::protobuf::internal::LogMessage", align 8
  %6 = alloca i1, align 1
  %7 = alloca i1, align 1
  %8 = alloca ptr, align 8
  %9 = alloca i32, align 4
  %10 = alloca %"class.google::protobuf::internal::LogFinisher", align 1
  %11 = alloca %"class.google::protobuf::internal::LogMessage", align 8
  %12 = alloca i1, align 1
  %13 = alloca i1, align 1
  %14 = alloca %"class.google::protobuf::internal::LogFinisher", align 1
  store ptr %0, ptr %3, align 8, !tbaa !260
  store ptr %1, ptr %4, align 8, !tbaa !260
  %15 = load ptr, ptr %3, align 8
  br label %16

16:                                               ; preds = %31, %2
  br i1 false, label %17, label %47

17:                                               ; preds = %16
  %18 = load ptr, ptr %4, align 8, !tbaa !260
  %19 = icmp ne ptr %15, %18
  store i1 false, ptr %6, align 1
  store i1 false, ptr %7, align 1
  call void @llvm.lifetime.start.p0(i64 1, ptr %10) #3
  br i1 %19, label %20, label %21

20:                                               ; preds = %17
  br label %25

21:                                               ; preds = %17
  call void @llvm.lifetime.start.p0(i64 56, ptr %5) #3
  store i1 true, ptr %6, align 1
  call void @_ZN6google8protobuf8internal10LogMessageC1ENS0_8LogLevelEPKci(ptr noundef nonnull align 8 dereferenceable(56) %5, i32 noundef 3, ptr noundef @.str.31, i32 noundef 2590)
  store i1 true, ptr %7, align 1
  %22 = invoke noundef nonnull align 8 dereferenceable(56) ptr @_ZN6google8protobuf8internal10LogMessagelsEPKc(ptr noundef nonnull align 8 dereferenceable(56) %5, ptr noundef @.str.43)
          to label %23 unwind label %32

23:                                               ; preds = %21
  invoke void @_ZN6google8protobuf8internal11LogFinisheraSERNS1_10LogMessageE(ptr noundef nonnull align 1 dereferenceable(1) %10, ptr noundef nonnull align 8 dereferenceable(56) %22)
          to label %24 unwind label %36

24:                                               ; preds = %23
  br label %25

25:                                               ; preds = %24, %20
  call void @llvm.lifetime.end.p0(i64 1, ptr %10) #3
  %26 = load i1, ptr %7, align 1
  br i1 %26, label %27, label %28

27:                                               ; preds = %25
  call void @_ZN6google8protobuf8internal10LogMessageD1Ev(ptr noundef nonnull align 8 dereferenceable(56) %5) #3
  br label %28

28:                                               ; preds = %27, %25
  %29 = load i1, ptr %6, align 1
  br i1 %29, label %30, label %31

30:                                               ; preds = %28
  call void @llvm.lifetime.end.p0(i64 56, ptr %5) #3
  br label %31

31:                                               ; preds = %30, %28
  br label %16, !llvm.loop !319

32:                                               ; preds = %21
  %33 = landingpad { ptr, i32 }
          cleanup
  %34 = extractvalue { ptr, i32 } %33, 0
  store ptr %34, ptr %8, align 8
  %35 = extractvalue { ptr, i32 } %33, 1
  store i32 %35, ptr %9, align 4
  br label %40

36:                                               ; preds = %23
  %37 = landingpad { ptr, i32 }
          cleanup
  %38 = extractvalue { ptr, i32 } %37, 0
  store ptr %38, ptr %8, align 8
  %39 = extractvalue { ptr, i32 } %37, 1
  store i32 %39, ptr %9, align 4
  call void @llvm.lifetime.end.p0(i64 1, ptr %10) #3
  br label %40

40:                                               ; preds = %36, %32
  %41 = load i1, ptr %7, align 1
  br i1 %41, label %42, label %43

42:                                               ; preds = %40
  call void @_ZN6google8protobuf8internal10LogMessageD1Ev(ptr noundef nonnull align 8 dereferenceable(56) %5) #3
  br label %43

43:                                               ; preds = %42, %40
  %44 = load i1, ptr %6, align 1
  br i1 %44, label %45, label %46

45:                                               ; preds = %43
  call void @llvm.lifetime.end.p0(i64 56, ptr %5) #3
  br label %46

46:                                               ; preds = %45, %43
  br label %85

47:                                               ; preds = %16
  br label %48

48:                                               ; preds = %65, %47
  br i1 false, label %49, label %81

49:                                               ; preds = %48
  %50 = call noundef ptr @_ZNK6google8protobuf8internal20RepeatedPtrFieldBase8GetArenaEv(ptr noundef nonnull align 8 dereferenceable(24) %15)
  %51 = load ptr, ptr %4, align 8, !tbaa !260
  %52 = call noundef ptr @_ZNK6google8protobuf8internal20RepeatedPtrFieldBase8GetArenaEv(ptr noundef nonnull align 8 dereferenceable(24) %51)
  %53 = icmp eq ptr %50, %52
  store i1 false, ptr %12, align 1
  store i1 false, ptr %13, align 1
  call void @llvm.lifetime.start.p0(i64 1, ptr %14) #3
  br i1 %53, label %54, label %55

54:                                               ; preds = %49
  br label %59

55:                                               ; preds = %49
  call void @llvm.lifetime.start.p0(i64 56, ptr %11) #3
  store i1 true, ptr %12, align 1
  call void @_ZN6google8protobuf8internal10LogMessageC1ENS0_8LogLevelEPKci(ptr noundef nonnull align 8 dereferenceable(56) %11, i32 noundef 3, ptr noundef @.str.31, i32 noundef 2591)
  store i1 true, ptr %13, align 1
  %56 = invoke noundef nonnull align 8 dereferenceable(56) ptr @_ZN6google8protobuf8internal10LogMessagelsEPKc(ptr noundef nonnull align 8 dereferenceable(56) %11, ptr noundef @.str.44)
          to label %57 unwind label %66

57:                                               ; preds = %55
  invoke void @_ZN6google8protobuf8internal11LogFinisheraSERNS1_10LogMessageE(ptr noundef nonnull align 1 dereferenceable(1) %14, ptr noundef nonnull align 8 dereferenceable(56) %56)
          to label %58 unwind label %70

58:                                               ; preds = %57
  br label %59

59:                                               ; preds = %58, %54
  call void @llvm.lifetime.end.p0(i64 1, ptr %14) #3
  %60 = load i1, ptr %13, align 1
  br i1 %60, label %61, label %62

61:                                               ; preds = %59
  call void @_ZN6google8protobuf8internal10LogMessageD1Ev(ptr noundef nonnull align 8 dereferenceable(56) %11) #3
  br label %62

62:                                               ; preds = %61, %59
  %63 = load i1, ptr %12, align 1
  br i1 %63, label %64, label %65

64:                                               ; preds = %62
  call void @llvm.lifetime.end.p0(i64 56, ptr %11) #3
  br label %65

65:                                               ; preds = %64, %62
  br label %48, !llvm.loop !320

66:                                               ; preds = %55
  %67 = landingpad { ptr, i32 }
          cleanup
  %68 = extractvalue { ptr, i32 } %67, 0
  store ptr %68, ptr %8, align 8
  %69 = extractvalue { ptr, i32 } %67, 1
  store i32 %69, ptr %9, align 4
  br label %74

70:                                               ; preds = %57
  %71 = landingpad { ptr, i32 }
          cleanup
  %72 = extractvalue { ptr, i32 } %71, 0
  store ptr %72, ptr %8, align 8
  %73 = extractvalue { ptr, i32 } %71, 1
  store i32 %73, ptr %9, align 4
  call void @llvm.lifetime.end.p0(i64 1, ptr %14) #3
  br label %74

74:                                               ; preds = %70, %66
  %75 = load i1, ptr %13, align 1
  br i1 %75, label %76, label %77

76:                                               ; preds = %74
  call void @_ZN6google8protobuf8internal10LogMessageD1Ev(ptr noundef nonnull align 8 dereferenceable(56) %11) #3
  br label %77

77:                                               ; preds = %76, %74
  %78 = load i1, ptr %12, align 1
  br i1 %78, label %79, label %80

79:                                               ; preds = %77
  call void @llvm.lifetime.end.p0(i64 56, ptr %11) #3
  br label %80

80:                                               ; preds = %79, %77
  br label %85

81:                                               ; preds = %48
  %82 = getelementptr inbounds nuw i8, ptr %15, i64 8
  %83 = load ptr, ptr %4, align 8, !tbaa !260
  %84 = getelementptr inbounds nuw i8, ptr %83, i64 8
  call void @_ZN6google8protobuf8internal7memswapILi16EEENSt9enable_ifIXaageT_Lm16EltT_lsLj1ELi31EEvE4typeEPcS6_(ptr noundef %82, ptr noundef %84)
  ret void

85:                                               ; preds = %80, %46
  %86 = load ptr, ptr %8, align 8
  %87 = load i32, ptr %9, align 4
  %88 = insertvalue { ptr, i32 } poison, ptr %86, 0
  %89 = insertvalue { ptr, i32 } %88, i32 %87, 1
  resume { ptr, i32 } %89
}

; Function Attrs: inlinehint mustprogress uwtable
define linkonce_odr void @_ZN6google8protobuf8internal16InternalMetadata6DoSwapINSt7__cxx1112basic_stringIcSt11char_traitsIcESaIcEEEEEvPT_(ptr noundef nonnull align 8 dereferenceable(8) %0, ptr noundef %1) #7 comdat align 2 {
  %3 = alloca ptr, align 8
  %4 = alloca ptr, align 8
  store ptr %0, ptr %3, align 8, !tbaa !87
  store ptr %1, ptr %4, align 8, !tbaa !27
  %5 = load ptr, ptr %3, align 8
  %6 = call noundef ptr @_ZN6google8protobuf8internal16InternalMetadata22mutable_unknown_fieldsINSt7__cxx1112basic_stringIcSt11char_traitsIcESaIcEEEEEPT_v(ptr noundef nonnull align 8 dereferenceable(8) %5)
  %7 = load ptr, ptr %4, align 8, !tbaa !27
  call void @_ZNSt7__cxx1112basic_stringIcSt11char_traitsIcESaIcEE4swapERS4_(ptr noundef nonnull align 8 dereferenceable(32) %6, ptr noundef nonnull align 8 dereferenceable(32) %7) #3
  ret void
}

; Function Attrs: alwaysinline mustprogress uwtable
define linkonce_odr noundef ptr @_ZN6google8protobuf8internal16InternalMetadata22mutable_unknown_fieldsINSt7__cxx1112basic_stringIcSt11char_traitsIcESaIcEEEEEPT_v(ptr noundef nonnull align 8 dereferenceable(8) %0) #12 comdat align 2 {
  %2 = alloca ptr, align 8
  %3 = alloca ptr, align 8
  store ptr %0, ptr %3, align 8, !tbaa !87
  %4 = load ptr, ptr %3, align 8
  %5 = call noundef zeroext i1 @_ZNK6google8protobuf8internal16InternalMetadata19have_unknown_fieldsEv(ptr noundef nonnull align 8 dereferenceable(8) %4)
  %6 = xor i1 %5, true
  %7 = xor i1 %6, true
  %8 = zext i1 %7 to i64
  %9 = call i64 @llvm.expect.i64(i64 %8, i64 1)
  %10 = icmp ne i64 %9, 0
  br i1 %10, label %11, label %14

11:                                               ; preds = %1
  %12 = call noundef ptr @_ZNK6google8protobuf8internal16InternalMetadata8PtrValueINS2_9ContainerINSt7__cxx1112basic_stringIcSt11char_traitsIcESaIcEEEEEEEPT_v(ptr noundef nonnull align 8 dereferenceable(8) %4)
  %13 = getelementptr inbounds nuw %"struct.google::protobuf::internal::InternalMetadata::Container", ptr %12, i32 0, i32 1
  store ptr %13, ptr %2, align 8
  br label %16

14:                                               ; preds = %1
  %15 = call noundef ptr @_ZN6google8protobuf8internal16InternalMetadata27mutable_unknown_fields_slowINSt7__cxx1112basic_stringIcSt11char_traitsIcESaIcEEEEEPT_v(ptr noundef nonnull align 8 dereferenceable(8) %4)
  store ptr %15, ptr %2, align 8
  br label %16

16:                                               ; preds = %14, %11
  %17 = load ptr, ptr %2, align 8
  ret ptr %17
}

; Function Attrs: alwaysinline mustprogress uwtable
define linkonce_odr noundef zeroext i1 @_ZNK6google8protobuf8internal16InternalMetadata19have_unknown_fieldsEv(ptr noundef nonnull align 8 dereferenceable(8) %0) #12 comdat align 2 {
  %2 = alloca ptr, align 8
  store ptr %0, ptr %2, align 8, !tbaa !87
  %3 = load ptr, ptr %2, align 8
  %4 = call noundef i32 @_ZNK6google8protobuf8internal16InternalMetadata6PtrTagEv(ptr noundef nonnull align 8 dereferenceable(8) %3)
  %5 = icmp eq i32 %4, 1
  ret i1 %5
}

; Function Attrs: mustprogress uwtable
define linkonce_odr void @_ZN6google8protobuf16RepeatedPtrFieldIN13sentencepiece19SelfTestData_SampleEE12InternalSwapEPS4_(ptr noundef nonnull align 8 dereferenceable(24) %0, ptr noundef %1) #4 comdat align 2 {
  %3 = alloca ptr, align 8
  %4 = alloca ptr, align 8
  store ptr %0, ptr %3, align 8, !tbaa !182
  store ptr %1, ptr %4, align 8, !tbaa !182
  %5 = load ptr, ptr %3, align 8
  %6 = load ptr, ptr %4, align 8, !tbaa !182
  call void @_ZN6google8protobuf8internal20RepeatedPtrFieldBase12InternalSwapEPS2_(ptr noundef nonnull align 8 dereferenceable(24) %5, ptr noundef %6)
  ret void
}

; Function Attrs: alwaysinline mustprogress uwtable
define linkonce_odr void @_ZN6google8protobuf8internal16InternalMetadata4SwapINSt7__cxx1112basic_stringIcSt11char_traitsIcESaIcEEEEEvPS2_(ptr noundef nonnull align 8 dereferenceable(8) %0, ptr noundef %1) #12 comdat align 2 {
  %3 = alloca ptr, align 8
  %4 = alloca ptr, align 8
  store ptr %0, ptr %3, align 8, !tbaa !87
  store ptr %1, ptr %4, align 8, !tbaa !87
  %5 = load ptr, ptr %3, align 8
  %6 = call noundef zeroext i1 @_ZNK6google8protobuf8internal16InternalMetadata19have_unknown_fieldsEv(ptr noundef nonnull align 8 dereferenceable(8) %5)
  br i1 %6, label %10, label %7

7:                                                ; preds = %2
  %8 = load ptr, ptr %4, align 8, !tbaa !87
  %9 = call noundef zeroext i1 @_ZNK6google8protobuf8internal16InternalMetadata19have_unknown_fieldsEv(ptr noundef nonnull align 8 dereferenceable(8) %8)
  br i1 %9, label %10, label %13

10:                                               ; preds = %7, %2
  %11 = load ptr, ptr %4, align 8, !tbaa !87
  %12 = call noundef ptr @_ZN6google8protobuf8internal16InternalMetadata22mutable_unknown_fieldsINSt7__cxx1112basic_stringIcSt11char_traitsIcESaIcEEEEEPT_v(ptr noundef nonnull align 8 dereferenceable(8) %11)
  call void @_ZN6google8protobuf8internal16InternalMetadata6DoSwapINSt7__cxx1112basic_stringIcSt11char_traitsIcESaIcEEEEEvPT_(ptr noundef nonnull align 8 dereferenceable(8) %5, ptr noundef %12)
  br label %13

13:                                               ; preds = %10, %7
  ret void
}

; Function Attrs: mustprogress uwtable
define void @_ZN13sentencepiece12SelfTestData12InternalSwapEPS0_(ptr noundef nonnull align 8 dereferenceable(72) %0, ptr noundef %1) #4 align 2 {
  %3 = alloca ptr, align 8
  %4 = alloca ptr, align 8
  store ptr %0, ptr %3, align 8, !tbaa !180
  store ptr %1, ptr %4, align 8, !tbaa !180
  %5 = load ptr, ptr %3, align 8
  %6 = getelementptr inbounds nuw %"class.sentencepiece::SelfTestData", ptr %5, i32 0, i32 1
  %7 = load ptr, ptr %4, align 8, !tbaa !180
  %8 = getelementptr inbounds nuw %"class.sentencepiece::SelfTestData", ptr %7, i32 0, i32 1
  call void @_ZN6google8protobuf8internal12ExtensionSet4SwapEPS2_(ptr noundef nonnull align 8 dereferenceable(24) %6, ptr noundef %8)
  %9 = getelementptr inbounds nuw %"class.google::protobuf::MessageLite", ptr %5, i32 0, i32 1
  %10 = load ptr, ptr %4, align 8, !tbaa !180
  %11 = getelementptr inbounds nuw %"class.google::protobuf::MessageLite", ptr %10, i32 0, i32 1
  call void @_ZN6google8protobuf8internal16InternalMetadata4SwapINSt7__cxx1112basic_stringIcSt11char_traitsIcESaIcEEEEEvPS2_(ptr noundef nonnull align 8 dereferenceable(8) %9, ptr noundef %11)
  %12 = getelementptr inbounds nuw %"class.sentencepiece::SelfTestData", ptr %5, i32 0, i32 2
  %13 = load ptr, ptr %4, align 8, !tbaa !180
  %14 = getelementptr inbounds nuw %"class.sentencepiece::SelfTestData", ptr %13, i32 0, i32 2
  call void @_ZN6google8protobuf16RepeatedPtrFieldIN13sentencepiece19SelfTestData_SampleEE12InternalSwapEPS4_(ptr noundef nonnull align 8 dereferenceable(24) %12, ptr noundef %14)
  ret void
}