; Function Attrs: mustprogress uwtable
define void @_ZN13sentencepiece12SelfTestData12InternalSwapEPS0_(ptr noundef nonnull align 8 dereferenceable(72) %0, ptr noundef %1) local_unnamed_addr #3 align 2 personality ptr @__gxx_personality_v0 {
  %3 = getelementptr inbounds nuw i8, ptr %0, i64 16
  %4 = getelementptr inbounds nuw i8, ptr %1, i64 16
  tail call void @_ZN6google8protobuf8internal12ExtensionSet4SwapEPS2_(ptr noundef nonnull align 8 dereferenceable(24) %3, ptr noundef nonnull %4)
  %5 = getelementptr inbounds nuw i8, ptr %0, i64 8
  %6 = getelementptr inbounds nuw i8, ptr %1, i64 8
  %7 = load ptr, ptr %5, align 8, !tbaa !3
  %8 = ptrtoint ptr %7 to i64
  %9 = and i64 %8, 1
  %.not = icmp eq i64 %9, 0
  %.pre = load ptr, ptr %6, align 8, !tbaa !3
  %10 = ptrtoint ptr %.pre to i64
  %11 = and i64 %10, 1
  %.not6 = icmp eq i64 %11, 0
  br i1 %.not, label %12, label %13

12:                                               ; preds = %2
  br i1 %.not6, label %_ZN6google8protobuf8internal16InternalMetadata4SwapINSt7__cxx1112basic_stringIcSt11char_traitsIcESaIcEEEEEvPS2_.exit, label %.thread

13:                                               ; preds = %2
  br i1 %.not6, label %17, label %.thread, !prof !144

.thread:                                          ; preds = %12, %13
  %14 = and i64 %10, -2
  %15 = inttoptr i64 %14 to ptr
  %16 = getelementptr inbounds nuw i8, ptr %15, i64 8
  br label %_ZN6google8protobuf8internal16InternalMetadata22mutable_unknown_fieldsINSt7__cxx1112basic_stringIcSt11char_traitsIcESaIcEEEEEPT_v.exit.i

17:                                               ; preds = %13
  %18 = tail call noundef ptr @_ZN6google8protobuf8internal16InternalMetadata27mutable_unknown_fields_slowINSt7__cxx1112basic_stringIcSt11char_traitsIcESaIcEEEEEPT_v(ptr noundef nonnull align 8 dereferenceable(8) %6)
  %.pre8 = load ptr, ptr %5, align 8, !tbaa !3
  %.pre9 = ptrtoint ptr %.pre8 to i64
  br label %_ZN6google8protobuf8internal16InternalMetadata22mutable_unknown_fieldsINSt7__cxx1112basic_stringIcSt11char_traitsIcESaIcEEEEEPT_v.exit.i

_ZN6google8protobuf8internal16InternalMetadata22mutable_unknown_fieldsINSt7__cxx1112basic_stringIcSt11char_traitsIcESaIcEEEEEPT_v.exit.i: ; preds = %17, %.thread
  %.pre-phi = phi i64 [ %.pre9, %17 ], [ %8, %.thread ]
  %.0.i.i = phi ptr [ %18, %17 ], [ %16, %.thread ]
  %19 = and i64 %.pre-phi, 1
  %.not.i = icmp eq i64 %19, 0
  br i1 %.not.i, label %24, label %20, !prof !72

20:                                               ; preds = %_ZN6google8protobuf8internal16InternalMetadata22mutable_unknown_fieldsINSt7__cxx1112basic_stringIcSt11char_traitsIcESaIcEEEEEPT_v.exit.i
  %21 = and i64 %.pre-phi, -2
  %22 = inttoptr i64 %21 to ptr
  %23 = getelementptr inbounds nuw i8, ptr %22, i64 8
  br label %_ZN6google8protobuf8internal16InternalMetadata6DoSwapINSt7__cxx1112basic_stringIcSt11char_traitsIcESaIcEEEEEvPT_.exit

24:                                               ; preds = %_ZN6google8protobuf8internal16InternalMetadata22mutable_unknown_fieldsINSt7__cxx1112basic_stringIcSt11char_traitsIcESaIcEEEEEPT_v.exit.i
  %25 = tail call noundef ptr @_ZN6google8protobuf8internal16InternalMetadata27mutable_unknown_fields_slowINSt7__cxx1112basic_stringIcSt11char_traitsIcESaIcEEEEEPT_v(ptr noundef nonnull align 8 dereferenceable(8) %5)
  br label %_ZN6google8protobuf8internal16InternalMetadata6DoSwapINSt7__cxx1112basic_stringIcSt11char_traitsIcESaIcEEEEEvPT_.exit

_ZN6google8protobuf8internal16InternalMetadata6DoSwapINSt7__cxx1112basic_stringIcSt11char_traitsIcESaIcEEEEEvPT_.exit: ; preds = %20, %24
  %.0.i.i5 = phi ptr [ %23, %20 ], [ %25, %24 ]
  tail call void @_ZNSt7__cxx1112basic_stringIcSt11char_traitsIcESaIcEE4swapERS4_(ptr noundef nonnull align 8 dereferenceable(32) %.0.i.i5, ptr noundef nonnull align 8 dereferenceable(32) %.0.i.i) #25
  br label %_ZN6google8protobuf8internal16InternalMetadata4SwapINSt7__cxx1112basic_stringIcSt11char_traitsIcESaIcEEEEEvPS2_.exit

_ZN6google8protobuf8internal16InternalMetadata4SwapINSt7__cxx1112basic_stringIcSt11char_traitsIcESaIcEEEEEvPS2_.exit: ; preds = %12, %_ZN6google8protobuf8internal16InternalMetadata6DoSwapINSt7__cxx1112basic_stringIcSt11char_traitsIcESaIcEEEEEvPT_.exit
  %26 = getelementptr inbounds nuw i8, ptr %0, i64 48
  %27 = getelementptr inbounds nuw i8, ptr %1, i64 48
  %.0.copyload.i.i.i.i = load i128, ptr %26, align 8
  tail call void @llvm.memcpy.p0.p0.i64(ptr noundef nonnull align 8 dereferenceable(16) %26, ptr noundef nonnull align 1 dereferenceable(16) %27, i64 16, i1 false)
  store i128 %.0.copyload.i.i.i.i, ptr %27, align 1
  ret void
}